; Function Attrs: mustprogress uwtable
define dso_local noundef ptr @_Z17luaL_buffinitsizeP9lua_StateP11luaL_Strbufm(ptr noundef %0, ptr noundef %1, i64 noundef %2) local_unnamed_addr #2 {
  %4 = getelementptr inbounds i8, ptr %1, i64 32
  store ptr %4, ptr %1, align 8
  %5 = getelementptr inbounds i8, ptr %1, i64 544
  %6 = getelementptr inbounds i8, ptr %1, i64 8
  store ptr %5, ptr %6, align 8
  %7 = getelementptr inbounds i8, ptr %1, i64 16
  store ptr %0, ptr %7, align 8
  %8 = getelementptr inbounds i8, ptr %1, i64 24
  store ptr null, ptr %8, align 8
  %9 = tail call noundef ptr @_Z17luaL_prepbuffsizeP11luaL_Strbufm(ptr noundef nonnull %1, i64 noundef %2)
  ret ptr %9
}